target datalayout = "e-m:e-p270:32:32-p271:32:32-p272:64:64-i64:64-i128:128-f80:128-n8:16:32:64-S128"
target triple = "x86_64-pc-linux-gnu"

%struct.pm_newline_list_t = type { ptr, i64, i64, ptr }

; Function Attrs: nounwind sspstrong uwtable
define hidden i32 @pm_newline_list_line(ptr noundef %0, ptr noundef %1, i32 noundef %2) #0 {
  %4 = alloca i32, align 4
  %5 = alloca ptr, align 8
  %6 = alloca ptr, align 8
  %7 = alloca i32, align 4
  %8 = alloca i64, align 8
  %9 = alloca i64, align 8
  %10 = alloca i64, align 8
  %11 = alloca i64, align 8
  %12 = alloca i32, align 4
  store ptr %0, ptr %5, align 8, !tbaa !7
  store ptr %1, ptr %6, align 8, !tbaa !11
  store i32 %2, ptr %7, align 4, !tbaa !22
  call void @llvm.lifetime.start.p0(i64 8, ptr %8) #7
  %13 = load ptr, ptr %6, align 8, !tbaa !11
  %14 = load ptr, ptr %5, align 8, !tbaa !7
  %15 = getelementptr inbounds nuw %struct.pm_newline_list_t, ptr %14, i32 0, i32 0
  %16 = load ptr, ptr %15, align 8, !tbaa !18
  %17 = ptrtoint ptr %13 to i64
  %18 = ptrtoint ptr %16 to i64
  %19 = sub i64 %17, %18
  store i64 %19, ptr %8, align 8, !tbaa !13
  call void @llvm.lifetime.start.p0(i64 8, ptr %9) #7
  store i64 0, ptr %9, align 8, !tbaa !13
  call void @llvm.lifetime.start.p0(i64 8, ptr %10) #7
  %20 = load ptr, ptr %5, align 8, !tbaa !7
  %21 = getelementptr inbounds nuw %struct.pm_newline_list_t, ptr %20, i32 0, i32 1
  %22 = load i64, ptr %21, align 8, !tbaa !19
  %23 = sub i64 %22, 1
  store i64 %23, ptr %10, align 8, !tbaa !13
  br label %24

24:                                               ; preds = %66, %3
  %25 = load i64, ptr %9, align 8, !tbaa !13
  %26 = load i64, ptr %10, align 8, !tbaa !13
  %27 = icmp ule i64 %25, %26
  br i1 %27, label %28, label %67

28:                                               ; preds = %24
  call void @llvm.lifetime.start.p0(i64 8, ptr %11) #7
  %29 = load i64, ptr %9, align 8, !tbaa !13
  %30 = load i64, ptr %10, align 8, !tbaa !13
  %31 = load i64, ptr %9, align 8, !tbaa !13
  %32 = sub i64 %30, %31
  %33 = udiv i64 %32, 2
  %34 = add i64 %29, %33
  store i64 %34, ptr %11, align 8, !tbaa !13
  %35 = load ptr, ptr %5, align 8, !tbaa !7
  %36 = getelementptr inbounds nuw %struct.pm_newline_list_t, ptr %35, i32 0, i32 3
  %37 = load ptr, ptr %36, align 8, !tbaa !15
  %38 = load i64, ptr %11, align 8, !tbaa !13
  %39 = getelementptr i64, ptr %37, i64 %38
  %40 = load i64, ptr %39, align 8, !tbaa !13
  %41 = load i64, ptr %8, align 8, !tbaa !13
  %42 = icmp eq i64 %40, %41
  br i1 %42, label %43, label %48

43:                                               ; preds = %28
  %44 = load i64, ptr %11, align 8, !tbaa !13
  %45 = trunc i64 %44 to i32
  %46 = load i32, ptr %7, align 4, !tbaa !22
  %47 = add i32 %45, %46
  store i32 %47, ptr %4, align 4
  store i32 1, ptr %12, align 4
  br label %64

48:                                               ; preds = %28
  %49 = load ptr, ptr %5, align 8, !tbaa !7
  %50 = getelementptr inbounds nuw %struct.pm_newline_list_t, ptr %49, i32 0, i32 3
  %51 = load ptr, ptr %50, align 8, !tbaa !15
  %52 = load i64, ptr %11, align 8, !tbaa !13
  %53 = getelementptr i64, ptr %51, i64 %52
  %54 = load i64, ptr %53, align 8, !tbaa !13
  %55 = load i64, ptr %8, align 8, !tbaa !13
  %56 = icmp ult i64 %54, %55
  br i1 %56, label %57, label %60

57:                                               ; preds = %48
  %58 = load i64, ptr %11, align 8, !tbaa !13
  %59 = add i64 %58, 1
  store i64 %59, ptr %9, align 8, !tbaa !13
  br label %63

60:                                               ; preds = %48
  %61 = load i64, ptr %11, align 8, !tbaa !13
  %62 = sub i64 %61, 1
  store i64 %62, ptr %10, align 8, !tbaa !13
  br label %63

63:                                               ; preds = %60, %57
  store i32 0, ptr %12, align 4
  br label %64

64:                                               ; preds = %63, %43
  call void @llvm.lifetime.end.p0(i64 8, ptr %11) #7
  %65 = load i32, ptr %12, align 4
  switch i32 %65, label %73 [
    i32 0, label %66
  ]

66:                                               ; preds = %64
  br label %24, !llvm.loop !24

67:                                               ; preds = %24
  %68 = load i64, ptr %9, align 8, !tbaa !13
  %69 = trunc i64 %68 to i32
  %70 = load i32, ptr %7, align 4, !tbaa !22
  %71 = add i32 %69, %70
  %72 = sub i32 %71, 1
  store i32 %72, ptr %4, align 4
  store i32 1, ptr %12, align 4
  br label %73

73:                                               ; preds = %67, %64
  call void @llvm.lifetime.end.p0(i64 8, ptr %10) #7
  call void @llvm.lifetime.end.p0(i64 8, ptr %9) #7
  call void @llvm.lifetime.end.p0(i64 8, ptr %8) #7
  %74 = load i32, ptr %4, align 4
  ret i32 %74
}