; Function Attrs: nofree norecurse nosync nounwind sspstrong memory(read, inaccessiblemem: none) uwtable
define hidden i32 @pm_newline_list_line(ptr noundef readonly captures(none) %0, ptr noundef %1, i32 noundef %2) local_unnamed_addr #5 {
  %4 = load ptr, ptr %0, align 8, !tbaa !15
  %5 = ptrtoint ptr %1 to i64
  %6 = ptrtoint ptr %4 to i64
  %7 = sub i64 %5, %6
  %8 = getelementptr inbounds nuw i8, ptr %0, i64 8
  %9 = load i64, ptr %8, align 8, !tbaa !16
  %10 = add i64 %9, -1
  %11 = getelementptr inbounds nuw i8, ptr %0, i64 24
  %12 = load ptr, ptr %11, align 8, !tbaa !7
  br label %13

13:                                               ; preds = %3, %21
  %.02236 = phi i64 [ %10, %3 ], [ %.224, %21 ]
  %.02535 = phi i64 [ 0, %3 ], [ %.227, %21 ]
  %14 = sub nuw i64 %.02236, %.02535
  %15 = lshr i64 %14, 1
  %16 = add i64 %15, %.02535
  %17 = getelementptr i64, ptr %12, i64 %16
  %18 = load i64, ptr %17, align 8, !tbaa !18
  %.not30 = icmp eq i64 %18, %7
  br i1 %.not30, label %.thread, label %21

.thread:                                          ; preds = %13
  %19 = trunc i64 %16 to i32
  %20 = add i32 %2, %19
  br label %29

21:                                               ; preds = %13
  %22 = icmp ult i64 %18, %7
  %23 = add i64 %16, 1
  %24 = add i64 %16, -1
  %.227 = select i1 %22, i64 %23, i64 %.02535
  %.224 = select i1 %22, i64 %.02236, i64 %24
  %.not = icmp ugt i64 %.227, %.224
  br i1 %.not, label %25, label %13

25:                                               ; preds = %21
  %26 = trunc i64 %.227 to i32
  %27 = add i32 %2, -1
  %28 = add i32 %27, %26
  br label %29

29:                                               ; preds = %.thread, %25
  %.2 = phi i32 [ %28, %25 ], [ %20, %.thread ]
  ret i32 %.2
}